target datalayout = "e-m:e-p270:32:32-p271:32:32-p272:64:64-i64:64-i128:128-f80:128-n8:16:32:64-S128"
target triple = "x86_64-pc-linux-gnu"

%"class.ncnn::Mat" = type { ptr, ptr, i64, i32, ptr, i32, i32, i32, i32, i32, i64 }

; Function Attrs: mustprogress nounwind uwtable
define hidden void @ncnn_mat_destroy(ptr noundef %0) #0 personality ptr @__gxx_personality_v0 {
  %2 = alloca ptr, align 8
  %3 = alloca ptr, align 8
  %4 = alloca i32, align 4
  %5 = alloca i32, align 4
  %6 = alloca ptr, align 8
  %7 = alloca ptr, align 8
  store ptr %0, ptr %7, align 8
  %8 = load ptr, ptr %7, align 8
  %9 = icmp eq ptr %8, null
  br i1 %9, label %57, label %10

10:                                               ; preds = %1
  store ptr %8, ptr %6, align 8
  %11 = load ptr, ptr %6, align 8
  store ptr %11, ptr %3, align 8
  %12 = load ptr, ptr %3, align 8
  %13 = getelementptr inbounds nuw %"class.ncnn::Mat", ptr %12, i32 0, i32 1
  %14 = load ptr, ptr %13, align 8
  %15 = icmp ne ptr %14, null
  br i1 %15, label %16, label %43

16:                                               ; preds = %10
  %17 = getelementptr inbounds nuw %"class.ncnn::Mat", ptr %12, i32 0, i32 1
  %18 = load ptr, ptr %17, align 8
  store i32 -1, ptr %4, align 4
  %19 = load i32, ptr %4, align 4
  %20 = atomicrmw add ptr %18, i32 %19 acq_rel, align 4
  store i32 %20, ptr %5, align 4
  %21 = load i32, ptr %5, align 4
  %22 = icmp eq i32 %21, 1
  br i1 %22, label %23, label %43

23:                                               ; preds = %16
  %24 = getelementptr inbounds nuw %"class.ncnn::Mat", ptr %12, i32 0, i32 4
  %25 = load ptr, ptr %24, align 8
  %26 = icmp ne ptr %25, null
  br i1 %26, label %27, label %35

27:                                               ; preds = %23
  %28 = getelementptr inbounds nuw %"class.ncnn::Mat", ptr %12, i32 0, i32 4
  %29 = load ptr, ptr %28, align 8
  %30 = load ptr, ptr %12, align 8
  %31 = load ptr, ptr %29, align 8
  %32 = getelementptr inbounds ptr, ptr %31, i64 3
  %33 = load ptr, ptr %32, align 8
  invoke void %33(ptr noundef nonnull align 8 dereferenceable(8) %29, ptr noundef %30)
          to label %34 unwind label %53

34:                                               ; preds = %27
  br label %42

35:                                               ; preds = %23
  %36 = load ptr, ptr %12, align 8
  store ptr %36, ptr %2, align 8
  %37 = load ptr, ptr %2, align 8
  %38 = icmp ne ptr %37, null
  br i1 %38, label %39, label %41

39:                                               ; preds = %35
  %40 = load ptr, ptr %2, align 8
  call void @free(ptr noundef %40) #15
  br label %41

41:                                               ; preds = %39, %35
  br label %42

42:                                               ; preds = %41, %34
  br label %43

43:                                               ; preds = %42, %16, %10
  store ptr null, ptr %12, align 8
  %44 = getelementptr inbounds nuw %"class.ncnn::Mat", ptr %12, i32 0, i32 2
  store i64 0, ptr %44, align 8
  %45 = getelementptr inbounds nuw %"class.ncnn::Mat", ptr %12, i32 0, i32 3
  store i32 0, ptr %45, align 8
  %46 = getelementptr inbounds nuw %"class.ncnn::Mat", ptr %12, i32 0, i32 5
  store i32 0, ptr %46, align 8
  %47 = getelementptr inbounds nuw %"class.ncnn::Mat", ptr %12, i32 0, i32 6
  store i32 0, ptr %47, align 4
  %48 = getelementptr inbounds nuw %"class.ncnn::Mat", ptr %12, i32 0, i32 7
  store i32 0, ptr %48, align 8
  %49 = getelementptr inbounds nuw %"class.ncnn::Mat", ptr %12, i32 0, i32 8
  store i32 0, ptr %49, align 4
  %50 = getelementptr inbounds nuw %"class.ncnn::Mat", ptr %12, i32 0, i32 9
  store i32 0, ptr %50, align 8
  %51 = getelementptr inbounds nuw %"class.ncnn::Mat", ptr %12, i32 0, i32 10
  store i64 0, ptr %51, align 8
  %52 = getelementptr inbounds nuw %"class.ncnn::Mat", ptr %12, i32 0, i32 1
  store ptr null, ptr %52, align 8
  br label %56

53:                                               ; preds = %27
  %54 = landingpad { ptr, i32 }
          catch ptr null
  %55 = extractvalue { ptr, i32 } %54, 0
  call void @__clang_call_terminate(ptr %55) #16
  unreachable

56:                                               ; preds = %43
  call void @_ZdlPvm(ptr noundef %8, i64 noundef 72) #14
  br label %57

57:                                               ; preds = %56, %1
  ret void
}