; Function Attrs: mustprogress nounwind uwtable
define hidden void @ncnn_mat_destroy(ptr noundef %0) local_unnamed_addr #5 personality ptr @__gxx_personality_v0 {
  %2 = icmp eq ptr %0, null
  br i1 %2, label %23, label %3

3:                                                ; preds = %1
  %4 = getelementptr inbounds nuw i8, ptr %0, i64 8
  %5 = load ptr, ptr %4, align 8
  %.not = icmp eq ptr %5, null
  br i1 %.not, label %19, label %6

6:                                                ; preds = %3
  %7 = atomicrmw add ptr %5, i32 -1 acq_rel, align 4
  %8 = icmp eq i32 %7, 1
  br i1 %8, label %9, label %19

9:                                                ; preds = %6
  %10 = getelementptr inbounds nuw i8, ptr %0, i64 32
  %11 = load ptr, ptr %10, align 8
  %.not9 = icmp eq ptr %11, null
  %12 = load ptr, ptr %0, align 8
  br i1 %.not9, label %17, label %13

13:                                               ; preds = %9
  %14 = load ptr, ptr %11, align 8
  %15 = getelementptr inbounds i8, ptr %14, i64 24
  %16 = load ptr, ptr %15, align 8
  invoke void %16(ptr noundef nonnull align 8 dereferenceable(8) %11, ptr noundef %12)
          to label %19 unwind label %20

17:                                               ; preds = %9
  %.not10 = icmp eq ptr %12, null
  br i1 %.not10, label %19, label %18

18:                                               ; preds = %17
  tail call void @free(ptr noundef nonnull %12) #26
  br label %19

19:                                               ; preds = %13, %18, %17, %6, %3
  tail call void @_ZdlPvm(ptr noundef nonnull %0, i64 noundef 72) #25
  br label %23

20:                                               ; preds = %13
  %21 = landingpad { ptr, i32 }
          catch ptr null
  %22 = extractvalue { ptr, i32 } %21, 0
  tail call void @__clang_call_terminate(ptr %22) #27
  unreachable

23:                                               ; preds = %19, %1
  ret void
}